; Function Attrs: mustprogress nofree nounwind willreturn memory(argmem: read) uwtable
define range(i64 0, 4294967300) i64 @_ZN9grpc_core25ParseCompressionAlgorithmESt17basic_string_viewIcSt11char_traitsIcEE(i64 %0, ptr readonly captures(none) %1) local_unnamed_addr #5 personality ptr @__gxx_personality_v0 {
  switch i64 %0, label %6 [
    i64 8, label %_ZNSt11char_traitsIcE7compareEPKcS2_m.exit.i.i
    i64 7, label %_ZNSt11char_traitsIcE7compareEPKcS2_m.exit.i.i8
    i64 4, label %_ZNSt11char_traitsIcE7compareEPKcS2_m.exit.i.i12
  ]

_ZNSt11char_traitsIcE7compareEPKcS2_m.exit.i.i:   ; preds = %2
  %bcmp.i = tail call i32 @bcmp(ptr noundef nonnull dereferenceable(8) %1, ptr noundef nonnull dereferenceable(8) @.str, i64 8)
  %3 = icmp eq i32 %bcmp.i, 0
  br i1 %3, label %_ZSteqIcSt11char_traitsIcEEbSt17basic_string_viewIT_T0_ENSt15__type_identityIS5_E4typeE.exit, label %6

_ZNSt11char_traitsIcE7compareEPKcS2_m.exit.i.i8:  ; preds = %2
  %bcmp.i9 = tail call i32 @bcmp(ptr %1, ptr nonnull @.str.1, i64 %0)
  %4 = icmp eq i32 %bcmp.i9, 0
  br i1 %4, label %_ZSteqIcSt11char_traitsIcEEbSt17basic_string_viewIT_T0_ENSt15__type_identityIS5_E4typeE.exit, label %6

_ZNSt11char_traitsIcE7compareEPKcS2_m.exit.i.i12: ; preds = %2
  %bcmp.i13 = tail call i32 @bcmp(ptr %1, ptr nonnull @.str.2, i64 %0)
  %5 = icmp eq i32 %bcmp.i13, 0
  br i1 %5, label %_ZSteqIcSt11char_traitsIcEEbSt17basic_string_viewIT_T0_ENSt15__type_identityIS5_E4typeE.exit, label %6

6:                                                ; preds = %_ZNSt11char_traitsIcE7compareEPKcS2_m.exit.i.i8, %_ZNSt11char_traitsIcE7compareEPKcS2_m.exit.i.i, %2, %_ZNSt11char_traitsIcE7compareEPKcS2_m.exit.i.i12
  br label %_ZSteqIcSt11char_traitsIcEEbSt17basic_string_viewIT_T0_ENSt15__type_identityIS5_E4typeE.exit

_ZSteqIcSt11char_traitsIcEEbSt17basic_string_viewIT_T0_ENSt15__type_identityIS5_E4typeE.exit: ; preds = %_ZNSt11char_traitsIcE7compareEPKcS2_m.exit.i.i12, %_ZNSt11char_traitsIcE7compareEPKcS2_m.exit.i.i8, %_ZNSt11char_traitsIcE7compareEPKcS2_m.exit.i.i, %6
  %.sroa.022.0 = phi i64 [ 0, %6 ], [ 0, %_ZNSt11char_traitsIcE7compareEPKcS2_m.exit.i.i ], [ 1, %_ZNSt11char_traitsIcE7compareEPKcS2_m.exit.i.i8 ], [ 2, %_ZNSt11char_traitsIcE7compareEPKcS2_m.exit.i.i12 ]
  %.sroa.4.0 = phi i64 [ 0, %6 ], [ 4294967296, %_ZNSt11char_traitsIcE7compareEPKcS2_m.exit.i.i ], [ 4294967296, %_ZNSt11char_traitsIcE7compareEPKcS2_m.exit.i.i8 ], [ 4294967296, %_ZNSt11char_traitsIcE7compareEPKcS2_m.exit.i.i12 ]
  %.sroa.022.0.insert.insert = or disjoint i64 %.sroa.4.0, %.sroa.022.0
  ret i64 %.sroa.022.0.insert.insert
}